; ModuleID = '9/846.cpp'
source_filename = "9/846.cpp"
target datalayout = "e-m:e-p270:32:32-p271:32:32-p272:64:64-i64:64-f80:128-n8:16:32:64-S128"
target triple = "x86_64-pc-linux-gnu"

%"class.std::ios_base::Init" = type { i8 }
%"class.std::basic_istream" = type { i32 (...)**, i64, %"class.std::basic_ios" }
%"class.std::basic_ios" = type { %"class.std::ios_base", %"class.std::basic_ostream"*, i8, i8, %"class.std::basic_streambuf"*, %"class.std::ctype"*, %"class.std::num_put"*, %"class.std::num_get"* }
%"class.std::ios_base" = type { i32 (...)**, i64, i64, i32, i32, i32, %"struct.std::ios_base::_Callback_list"*, %"struct.std::ios_base::_Words", [8 x %"struct.std::ios_base::_Words"], i32, %"struct.std::ios_base::_Words"*, %"class.std::locale" }
%"struct.std::ios_base::_Callback_list" = type { %"struct.std::ios_base::_Callback_list"*, void (i32, %"class.std::ios_base"*, i32)*, i32, i32 }
%"struct.std::ios_base::_Words" = type { i8*, i64 }
%"class.std::locale" = type { %"class.std::locale::_Impl"* }
%"class.std::locale::_Impl" = type { i32, %"class.std::locale::facet"**, i64, %"class.std::locale::facet"**, i8** }
%"class.std::locale::facet" = type <{ i32 (...)**, i32, [4 x i8] }>
%"class.std::basic_ostream" = type { i32 (...)**, %"class.std::basic_ios" }
%"class.std::basic_streambuf" = type { i32 (...)**, i8*, i8*, i8*, i8*, i8*, i8*, %"class.std::locale" }
%"class.std::ctype" = type <{ %"class.std::locale::facet.base", [4 x i8], %struct.__locale_struct*, i8, [7 x i8], i32*, i32*, i16*, i8, [256 x i8], [256 x i8], i8, [6 x i8] }>
%"class.std::locale::facet.base" = type <{ i32 (...)**, i32 }>
%struct.__locale_struct = type { [13 x %struct.__locale_data*], i16*, i32*, i32*, [13 x i8*] }
%struct.__locale_data = type opaque
%"class.std::num_put" = type { %"class.std::locale::facet.base", [4 x i8] }
%"class.std::num_get" = type { %"class.std::locale::facet.base", [4 x i8] }
%struct.pa = type { [10 x i8], i32 }

@_ZStL8__ioinit = internal global %"class.std::ios_base::Init" zeroinitializer, align 1
@__dso_handle = external hidden global i8
@_ZSt3cin = external dso_local global %"class.std::basic_istream", align 8
@.str = private unnamed_addr constant [4 x i8] c"%s\0A\00", align 1
@llvm.global_ctors = appending global [1 x { i32, void ()*, i8* }] [{ i32, void ()*, i8* } { i32 65535, void ()* @_GLOBAL__sub_I_846.cpp, i8* null }]

; Function Attrs: noinline uwtable
define internal void @__cxx_global_var_init() #0 section ".text.startup" {
  call void @_ZNSt8ios_base4InitC1Ev(%"class.std::ios_base::Init"* @_ZStL8__ioinit)
  %1 = call i32 @__cxa_atexit(void (i8*)* bitcast (void (%"class.std::ios_base::Init"*)* @_ZNSt8ios_base4InitD1Ev to void (i8*)*), i8* getelementptr inbounds (%"class.std::ios_base::Init", %"class.std::ios_base::Init"* @_ZStL8__ioinit, i32 0, i32 0), i8* @__dso_handle) #3
  ret void
}

declare dso_local void @_ZNSt8ios_base4InitC1Ev(%"class.std::ios_base::Init"*) unnamed_addr #1

; Function Attrs: nounwind
declare dso_local void @_ZNSt8ios_base4InitD1Ev(%"class.std::ios_base::Init"*) unnamed_addr #2

; Function Attrs: nounwind
declare dso_local i32 @__cxa_atexit(void (i8*)*, i8*, i8*) #3

; Function Attrs: noinline norecurse uwtable
define dso_local i32 @main() #4 {
  %1 = alloca i32, align 4
  %2 = alloca [100 x %struct.pa], align 16
  %3 = alloca [100 x %struct.pa], align 16
  %4 = alloca [100 x %struct.pa], align 16
  %5 = alloca %struct.pa, align 4
  %6 = alloca i32, align 4
  %7 = alloca i32, align 4
  %8 = alloca i32, align 4
  %9 = alloca i32, align 4
  %10 = alloca i32, align 4
  store i32 0, i32* %1, align 4
  store i32 0, i32* %8, align 4
  store i32 0, i32* %9, align 4
  %11 = call dereferenceable(280) %"class.std::basic_istream"* @_ZNSirsERi(%"class.std::basic_istream"* @_ZSt3cin, i32* dereferenceable(4) %7)
  store i32 0, i32* %6, align 4
  br label %12

12:                                               ; preds = %28, %0
  %13 = load i32, i32* %6, align 4
  %14 = load i32, i32* %7, align 4
  %15 = icmp slt i32 %13, %14
  br i1 %15, label %16, label %31

16:                                               ; preds = %12
  %17 = load i32, i32* %6, align 4
  %18 = sext i32 %17 to i64
  %19 = getelementptr inbounds [100 x %struct.pa], [100 x %struct.pa]* %2, i64 0, i64 %18
  %20 = getelementptr inbounds %struct.pa, %struct.pa* %19, i32 0, i32 0
  %21 = getelementptr inbounds [10 x i8], [10 x i8]* %20, i64 0, i64 0
  %22 = call dereferenceable(280) %"class.std::basic_istream"* @_ZStrsIcSt11char_traitsIcEERSt13basic_istreamIT_T0_ES6_PS3_(%"class.std::basic_istream"* dereferenceable(280) @_ZSt3cin, i8* %21)
  %23 = load i32, i32* %6, align 4
  %24 = sext i32 %23 to i64
  %25 = getelementptr inbounds [100 x %struct.pa], [100 x %struct.pa]* %2, i64 0, i64 %24
  %26 = getelementptr inbounds %struct.pa, %struct.pa* %25, i32 0, i32 1
  %27 = call dereferenceable(280) %"class.std::basic_istream"* @_ZNSirsERi(%"class.std::basic_istream"* %22, i32* dereferenceable(4) %26)
  br label %28

28:                                               ; preds = %16
  %29 = load i32, i32* %6, align 4
  %30 = add nsw i32 %29, 1
  store i32 %30, i32* %6, align 4
  br label %12

31:                                               ; preds = %12
  store i32 0, i32* %6, align 4
  br label %32

32:                                               ; preds = %66, %31
  %33 = load i32, i32* %6, align 4
  %34 = load i32, i32* %7, align 4
  %35 = icmp slt i32 %33, %34
  br i1 %35, label %36, label %69

36:                                               ; preds = %32
  %37 = load i32, i32* %6, align 4
  %38 = sext i32 %37 to i64
  %39 = getelementptr inbounds [100 x %struct.pa], [100 x %struct.pa]* %2, i64 0, i64 %38
  %40 = getelementptr inbounds %struct.pa, %struct.pa* %39, i32 0, i32 1
  %41 = load i32, i32* %40, align 4
  %42 = icmp sge i32 %41, 60
  br i1 %42, label %43, label %54

43:                                               ; preds = %36
  %44 = load i32, i32* %6, align 4
  %45 = sext i32 %44 to i64
  %46 = getelementptr inbounds [100 x %struct.pa], [100 x %struct.pa]* %2, i64 0, i64 %45
  %47 = load i32, i32* %8, align 4
  %48 = sext i32 %47 to i64
  %49 = getelementptr inbounds [100 x %struct.pa], [100 x %struct.pa]* %3, i64 0, i64 %48
  %50 = bitcast %struct.pa* %49 to i8*
  %51 = bitcast %struct.pa* %46 to i8*
  call void @llvm.memcpy.p0i8.p0i8.i64(i8* align 16 %50, i8* align 16 %51, i64 16, i1 false)
  %52 = load i32, i32* %8, align 4
  %53 = add nsw i32 %52, 1
  store i32 %53, i32* %8, align 4
  br label %65

54:                                               ; preds = %36
  %55 = load i32, i32* %6, align 4
  %56 = sext i32 %55 to i64
  %57 = getelementptr inbounds [100 x %struct.pa], [100 x %struct.pa]* %2, i64 0, i64 %56
  %58 = load i32, i32* %9, align 4
  %59 = sext i32 %58 to i64
  %60 = getelementptr inbounds [100 x %struct.pa], [100 x %struct.pa]* %4, i64 0, i64 %59
  %61 = bitcast %struct.pa* %60 to i8*
  %62 = bitcast %struct.pa* %57 to i8*
  call void @llvm.memcpy.p0i8.p0i8.i64(i8* align 16 %61, i8* align 16 %62, i64 16, i1 false)
  %63 = load i32, i32* %9, align 4
  %64 = add nsw i32 %63, 1
  store i32 %64, i32* %9, align 4
  br label %65

65:                                               ; preds = %54, %43
  br label %66

66:                                               ; preds = %65
  %67 = load i32, i32* %6, align 4
  %68 = add nsw i32 %67, 1
  store i32 %68, i32* %6, align 4
  br label %32

69:                                               ; preds = %32
  %70 = load i32, i32* %8, align 4
  %71 = sub nsw i32 %70, 1
  store i32 %71, i32* %6, align 4
  br label %72

72:                                               ; preds = %119, %69
  %73 = load i32, i32* %6, align 4
  %74 = icmp sgt i32 %73, 0
  br i1 %74, label %75, label %122

75:                                               ; preds = %72
  store i32 0, i32* %10, align 4
  br label %76

76:                                               ; preds = %115, %75
  %77 = load i32, i32* %10, align 4
  %78 = load i32, i32* %6, align 4
  %79 = icmp slt i32 %77, %78
  br i1 %79, label %80, label %118

80:                                               ; preds = %76
  %81 = load i32, i32* %10, align 4
  %82 = sext i32 %81 to i64
  %83 = getelementptr inbounds [100 x %struct.pa], [100 x %struct.pa]* %3, i64 0, i64 %82
  %84 = getelementptr inbounds %struct.pa, %struct.pa* %83, i32 0, i32 1
  %85 = load i32, i32* %84, align 4
  %86 = load i32, i32* %10, align 4
  %87 = add nsw i32 %86, 1
  %88 = sext i32 %87 to i64
  %89 = getelementptr inbounds [100 x %struct.pa], [100 x %struct.pa]* %3, i64 0, i64 %88
  %90 = getelementptr inbounds %struct.pa, %struct.pa* %89, i32 0, i32 1
  %91 = load i32, i32* %90, align 4
  %92 = icmp slt i32 %85, %91
  br i1 %92, label %93, label %114

93:                                               ; preds = %80
  %94 = load i32, i32* %10, align 4
  %95 = sext i32 %94 to i64
  %96 = getelementptr inbounds [100 x %struct.pa], [100 x %struct.pa]* %3, i64 0, i64 %95
  %97 = bitcast %struct.pa* %5 to i8*
  %98 = bitcast %struct.pa* %96 to i8*
  call void @llvm.memcpy.p0i8.p0i8.i64(i8* align 4 %97, i8* align 16 %98, i64 16, i1 false)
  %99 = load i32, i32* %10, align 4
  %100 = add nsw i32 %99, 1
  %101 = sext i32 %100 to i64
  %102 = getelementptr inbounds [100 x %struct.pa], [100 x %struct.pa]* %3, i64 0, i64 %101
  %103 = load i32, i32* %10, align 4
  %104 = sext i32 %103 to i64
  %105 = getelementptr inbounds [100 x %struct.pa], [100 x %struct.pa]* %3, i64 0, i64 %104
  %106 = bitcast %struct.pa* %105 to i8*
  %107 = bitcast %struct.pa* %102 to i8*
  call void @llvm.memcpy.p0i8.p0i8.i64(i8* align 16 %106, i8* align 16 %107, i64 16, i1 false)
  %108 = load i32, i32* %10, align 4
  %109 = add nsw i32 %108, 1
  %110 = sext i32 %109 to i64
  %111 = getelementptr inbounds [100 x %struct.pa], [100 x %struct.pa]* %3, i64 0, i64 %110
  %112 = bitcast %struct.pa* %111 to i8*
  %113 = bitcast %struct.pa* %5 to i8*
  call void @llvm.memcpy.p0i8.p0i8.i64(i8* align 16 %112, i8* align 4 %113, i64 16, i1 false)
  br label %114

114:                                              ; preds = %93, %80
  br label %115

115:                                              ; preds = %114
  %116 = load i32, i32* %10, align 4
  %117 = add nsw i32 %116, 1
  store i32 %117, i32* %10, align 4
  br label %76

118:                                              ; preds = %76
  br label %119

119:                                              ; preds = %118
  %120 = load i32, i32* %6, align 4
  %121 = add nsw i32 %120, -1
  store i32 %121, i32* %6, align 4
  br label %72

122:                                              ; preds = %72
  store i32 0, i32* %6, align 4
  br label %123

123:                                              ; preds = %134, %122
  %124 = load i32, i32* %6, align 4
  %125 = load i32, i32* %8, align 4
  %126 = icmp slt i32 %124, %125
  br i1 %126, label %127, label %137

127:                                              ; preds = %123
  %128 = load i32, i32* %6, align 4
  %129 = sext i32 %128 to i64
  %130 = getelementptr inbounds [100 x %struct.pa], [100 x %struct.pa]* %3, i64 0, i64 %129
  %131 = getelementptr inbounds %struct.pa, %struct.pa* %130, i32 0, i32 0
  %132 = getelementptr inbounds [10 x i8], [10 x i8]* %131, i64 0, i64 0
  %133 = call i32 (i8*, ...) @printf(i8* getelementptr inbounds ([4 x i8], [4 x i8]* @.str, i64 0, i64 0), i8* %132)
  br label %134

134:                                              ; preds = %127
  %135 = load i32, i32* %6, align 4
  %136 = add nsw i32 %135, 1
  store i32 %136, i32* %6, align 4
  br label %123

137:                                              ; preds = %123
  store i32 0, i32* %6, align 4
  br label %138

138:                                              ; preds = %149, %137
  %139 = load i32, i32* %6, align 4
  %140 = load i32, i32* %9, align 4
  %141 = icmp slt i32 %139, %140
  br i1 %141, label %142, label %152

142:                                              ; preds = %138
  %143 = load i32, i32* %6, align 4
  %144 = sext i32 %143 to i64
  %145 = getelementptr inbounds [100 x %struct.pa], [100 x %struct.pa]* %4, i64 0, i64 %144
  %146 = getelementptr inbounds %struct.pa, %struct.pa* %145, i32 0, i32 0
  %147 = getelementptr inbounds [10 x i8], [10 x i8]* %146, i64 0, i64 0
  %148 = call i32 (i8*, ...) @printf(i8* getelementptr inbounds ([4 x i8], [4 x i8]* @.str, i64 0, i64 0), i8* %147)
  br label %149

149:                                              ; preds = %142
  %150 = load i32, i32* %6, align 4
  %151 = add nsw i32 %150, 1
  store i32 %151, i32* %6, align 4
  br label %138

152:                                              ; preds = %138
  ret i32 0
}

declare dso_local dereferenceable(280) %"class.std::basic_istream"* @_ZNSirsERi(%"class.std::basic_istream"*, i32* dereferenceable(4)) #1

declare dso_local dereferenceable(280) %"class.std::basic_istream"* @_ZStrsIcSt11char_traitsIcEERSt13basic_istreamIT_T0_ES6_PS3_(%"class.std::basic_istream"* dereferenceable(280), i8*) #1

; Function Attrs: argmemonly nounwind willreturn
declare void @llvm.memcpy.p0i8.p0i8.i64(i8* noalias nocapture writeonly, i8* noalias nocapture readonly, i64, i1 immarg) #5

declare dso_local i32 @printf(i8*, ...) #1

; Function Attrs: noinline uwtable
define internal void @_GLOBAL__sub_I_846.cpp() #0 section ".text.startup" {
  call void @__cxx_global_var_init()
  ret void
}


!llvm.module.flags = !{!0}
!llvm.ident = !{!1}

!0 = !{i32 1, !"wchar_size", i32 4}
!1 = !{!"clang version 10.0.0-4ubuntu1 "}
